target datalayout = "e-m:e-p270:32:32-p271:32:32-p272:64:64-i64:64-i128:128-f80:128-n8:16:32:64-S128"
target triple = "x86_64-pc-linux-gnu"

%struct._stringlist = type { ptr, ptr }

; Function Attrs: nounwind uwtable
define hidden void @add_stringlist_item(ptr noundef %0, ptr noundef %1) #0 {
  %3 = alloca ptr, align 8
  %4 = alloca ptr, align 8
  %5 = alloca ptr, align 8
  %6 = alloca ptr, align 8
  store ptr %0, ptr %3, align 8
  store ptr %1, ptr %4, align 8
  call void @llvm.lifetime.start.p0(i64 8, ptr %5) #14
  %7 = call ptr @pg_malloc(i64 noundef 16)
  store ptr %7, ptr %5, align 8
  call void @llvm.lifetime.start.p0(i64 8, ptr %6) #14
  %8 = load ptr, ptr %4, align 8
  %9 = call ptr @pg_strdup(ptr noundef %8)
  %10 = load ptr, ptr %5, align 8
  %11 = getelementptr inbounds nuw %struct._stringlist, ptr %10, i32 0, i32 0
  store ptr %9, ptr %11, align 8
  %12 = load ptr, ptr %5, align 8
  %13 = getelementptr inbounds nuw %struct._stringlist, ptr %12, i32 0, i32 1
  store ptr null, ptr %13, align 8
  %14 = load ptr, ptr %3, align 8
  %15 = load ptr, ptr %14, align 8
  %16 = icmp eq ptr %15, null
  br i1 %16, label %17, label %20

17:                                               ; preds = %2
  %18 = load ptr, ptr %5, align 8
  %19 = load ptr, ptr %3, align 8
  store ptr %18, ptr %19, align 8
  br label %37

20:                                               ; preds = %2
  %21 = load ptr, ptr %3, align 8
  %22 = load ptr, ptr %21, align 8
  store ptr %22, ptr %6, align 8
  br label %23

23:                                               ; preds = %29, %20
  %24 = load ptr, ptr %6, align 8
  %25 = getelementptr inbounds nuw %struct._stringlist, ptr %24, i32 0, i32 1
  %26 = load ptr, ptr %25, align 8
  %27 = icmp ne ptr %26, null
  br i1 %27, label %28, label %33

28:                                               ; preds = %23
  br label %29

29:                                               ; preds = %28
  %30 = load ptr, ptr %6, align 8
  %31 = getelementptr inbounds nuw %struct._stringlist, ptr %30, i32 0, i32 1
  %32 = load ptr, ptr %31, align 8
  store ptr %32, ptr %6, align 8
  br label %23, !llvm.loop !3

33:                                               ; preds = %23
  %34 = load ptr, ptr %5, align 8
  %35 = load ptr, ptr %6, align 8
  %36 = getelementptr inbounds nuw %struct._stringlist, ptr %35, i32 0, i32 1
  store ptr %34, ptr %36, align 8
  br label %37

37:                                               ; preds = %33, %17
  call void @llvm.lifetime.end.p0(i64 8, ptr %6) #14
  call void @llvm.lifetime.end.p0(i64 8, ptr %5) #14
  ret void
}