; Function Attrs: nounwind uwtable
define hidden void @add_stringlist_item(ptr noundef captures(none) %0, ptr noundef %1) local_unnamed_addr #0 {
  %3 = tail call ptr @pg_malloc(i64 noundef 16) #22
  %4 = tail call ptr @pg_strdup(ptr noundef %1) #22
  store ptr %4, ptr %3, align 8
  %5 = getelementptr inbounds nuw i8, ptr %3, i64 8
  store ptr null, ptr %5, align 8
  %6 = load ptr, ptr %0, align 8
  %7 = icmp eq ptr %6, null
  br i1 %7, label %8, label %.preheader

8:                                                ; preds = %2
  store ptr %3, ptr %0, align 8
  br label %13

.preheader:                                       ; preds = %2, %.preheader
  %.0 = phi ptr [ %10, %.preheader ], [ %6, %2 ]
  %9 = getelementptr inbounds nuw i8, ptr %.0, i64 8
  %10 = load ptr, ptr %9, align 8
  %.not = icmp eq ptr %10, null
  br i1 %.not, label %11, label %.preheader, !llvm.loop !3

11:                                               ; preds = %.preheader
  %12 = getelementptr inbounds nuw i8, ptr %.0, i64 8
  store ptr %3, ptr %12, align 8
  br label %13

13:                                               ; preds = %11, %8
  ret void
}